; ModuleID = '25/450.cpp'
source_filename = "25/450.cpp"
target datalayout = "e-m:e-p270:32:32-p271:32:32-p272:64:64-i64:64-f80:128-n8:16:32:64-S128"
target triple = "x86_64-pc-linux-gnu"

%"class.std::ios_base::Init" = type { i8 }
%"class.std::basic_istream" = type { i32 (...)**, i64, %"class.std::basic_ios" }
%"class.std::basic_ios" = type { %"class.std::ios_base", %"class.std::basic_ostream"*, i8, i8, %"class.std::basic_streambuf"*, %"class.std::ctype"*, %"class.std::num_put"*, %"class.std::num_get"* }
%"class.std::ios_base" = type { i32 (...)**, i64, i64, i32, i32, i32, %"struct.std::ios_base::_Callback_list"*, %"struct.std::ios_base::_Words", [8 x %"struct.std::ios_base::_Words"], i32, %"struct.std::ios_base::_Words"*, %"class.std::locale" }
%"struct.std::ios_base::_Callback_list" = type { %"struct.std::ios_base::_Callback_list"*, void (i32, %"class.std::ios_base"*, i32)*, i32, i32 }
%"struct.std::ios_base::_Words" = type { i8*, i64 }
%"class.std::locale" = type { %"class.std::locale::_Impl"* }
%"class.std::locale::_Impl" = type { i32, %"class.std::locale::facet"**, i64, %"class.std::locale::facet"**, i8** }
%"class.std::locale::facet" = type <{ i32 (...)**, i32, [4 x i8] }>
%"class.std::basic_ostream" = type { i32 (...)**, %"class.std::basic_ios" }
%"class.std::basic_streambuf" = type { i32 (...)**, i8*, i8*, i8*, i8*, i8*, i8*, %"class.std::locale" }
%"class.std::ctype" = type <{ %"class.std::locale::facet.base", [4 x i8], %struct.__locale_struct*, i8, [7 x i8], i32*, i32*, i16*, i8, [256 x i8], [256 x i8], i8, [6 x i8] }>
%"class.std::locale::facet.base" = type <{ i32 (...)**, i32 }>
%struct.__locale_struct = type { [13 x %struct.__locale_data*], i16*, i32*, i32*, [13 x i8*] }
%struct.__locale_data = type opaque
%"class.std::num_put" = type { %"class.std::locale::facet.base", [4 x i8] }
%"class.std::num_get" = type { %"class.std::locale::facet.base", [4 x i8] }

@_ZStL8__ioinit = internal global %"class.std::ios_base::Init" zeroinitializer, align 1
@__dso_handle = external hidden global i8
@a = dso_local global [100001 x i32] zeroinitializer, align 16
@_ZSt3cin = external dso_local global %"class.std::basic_istream", align 8
@_ZSt4cout = external dso_local global %"class.std::basic_ostream", align 8
@llvm.global_ctors = appending global [1 x { i32, void ()*, i8* }] [{ i32, void ()*, i8* } { i32 65535, void ()* @_GLOBAL__sub_I_450.cpp, i8* null }]

; Function Attrs: noinline uwtable
define internal void @__cxx_global_var_init() #0 section ".text.startup" {
  call void @_ZNSt8ios_base4InitC1Ev(%"class.std::ios_base::Init"* @_ZStL8__ioinit)
  %1 = call i32 @__cxa_atexit(void (i8*)* bitcast (void (%"class.std::ios_base::Init"*)* @_ZNSt8ios_base4InitD1Ev to void (i8*)*), i8* getelementptr inbounds (%"class.std::ios_base::Init", %"class.std::ios_base::Init"* @_ZStL8__ioinit, i32 0, i32 0), i8* @__dso_handle) #3
  ret void
}

declare dso_local void @_ZNSt8ios_base4InitC1Ev(%"class.std::ios_base::Init"*) unnamed_addr #1

; Function Attrs: nounwind
declare dso_local void @_ZNSt8ios_base4InitD1Ev(%"class.std::ios_base::Init"*) unnamed_addr #2

; Function Attrs: nounwind
declare dso_local i32 @__cxa_atexit(void (i8*)*, i8*, i8*) #3

; Function Attrs: noinline norecurse uwtable
define dso_local i32 @main() #4 {
  %1 = alloca i32, align 4
  %2 = alloca i32, align 4
  %3 = alloca i32, align 4
  %4 = alloca i32, align 4
  %5 = alloca i32, align 4
  %6 = alloca i32, align 4
  %7 = alloca i32, align 4
  store i32 0, i32* %1, align 4
  %8 = call dereferenceable(280) %"class.std::basic_istream"* @_ZNSirsERi(%"class.std::basic_istream"* @_ZSt3cin, i32* dereferenceable(4) %2)
  store i32 2, i32* getelementptr inbounds ([100001 x i32], [100001 x i32]* @a, i64 0, i64 0), align 16
  %9 = load i32, i32* %2, align 4
  %10 = icmp eq i32 %9, 0
  br i1 %10, label %11, label %13

11:                                               ; preds = %0
  %12 = call dereferenceable(272) %"class.std::basic_ostream"* @_ZNSolsEi(%"class.std::basic_ostream"* @_ZSt4cout, i32 1)
  call void @exit(i32 1) #6
  unreachable

13:                                               ; preds = %0
  store i32 1, i32* %3, align 4
  br label %14

14:                                               ; preds = %73, %13
  %15 = load i32, i32* %3, align 4
  %16 = load i32, i32* %2, align 4
  %17 = sub nsw i32 %16, 1
  %18 = icmp sle i32 %15, %17
  br i1 %18, label %19, label %76

19:                                               ; preds = %14
  store i32 0, i32* %4, align 4
  br label %20

20:                                               ; preds = %36, %19
  %21 = load i32, i32* %4, align 4
  %22 = icmp slt i32 %21, 1000
  br i1 %22, label %23, label %39

23:                                               ; preds = %20
  %24 = load i32, i32* %4, align 4
  %25 = sext i32 %24 to i64
  %26 = getelementptr inbounds [100001 x i32], [100001 x i32]* @a, i64 0, i64 %25
  %27 = load i32, i32* %26, align 4
  %28 = load i32, i32* %4, align 4
  %29 = sext i32 %28 to i64
  %30 = getelementptr inbounds [100001 x i32], [100001 x i32]* @a, i64 0, i64 %29
  %31 = load i32, i32* %30, align 4
  %32 = add nsw i32 %27, %31
  %33 = load i32, i32* %4, align 4
  %34 = sext i32 %33 to i64
  %35 = getelementptr inbounds [100001 x i32], [100001 x i32]* @a, i64 0, i64 %34
  store i32 %32, i32* %35, align 4
  br label %36

36:                                               ; preds = %23
  %37 = load i32, i32* %4, align 4
  %38 = add nsw i32 %37, 1
  store i32 %38, i32* %4, align 4
  br label %20

39:                                               ; preds = %20
  store i32 0, i32* %7, align 4
  br label %40

40:                                               ; preds = %69, %39
  %41 = load i32, i32* %7, align 4
  %42 = icmp slt i32 %41, 1000
  br i1 %42, label %43, label %72

43:                                               ; preds = %40
  %44 = load i32, i32* %7, align 4
  %45 = sext i32 %44 to i64
  %46 = getelementptr inbounds [100001 x i32], [100001 x i32]* @a, i64 0, i64 %45
  %47 = load i32, i32* %46, align 4
  %48 = icmp sge i32 %47, 10
  br i1 %48, label %49, label %68

49:                                               ; preds = %43
  %50 = load i32, i32* %7, align 4
  %51 = sext i32 %50 to i64
  %52 = getelementptr inbounds [100001 x i32], [100001 x i32]* @a, i64 0, i64 %51
  %53 = load i32, i32* %52, align 4
  %54 = sub nsw i32 %53, 10
  %55 = load i32, i32* %7, align 4
  %56 = sext i32 %55 to i64
  %57 = getelementptr inbounds [100001 x i32], [100001 x i32]* @a, i64 0, i64 %56
  store i32 %54, i32* %57, align 4
  %58 = load i32, i32* %7, align 4
  %59 = add nsw i32 %58, 1
  %60 = sext i32 %59 to i64
  %61 = getelementptr inbounds [100001 x i32], [100001 x i32]* @a, i64 0, i64 %60
  %62 = load i32, i32* %61, align 4
  %63 = add nsw i32 %62, 1
  %64 = load i32, i32* %7, align 4
  %65 = add nsw i32 %64, 1
  %66 = sext i32 %65 to i64
  %67 = getelementptr inbounds [100001 x i32], [100001 x i32]* @a, i64 0, i64 %66
  store i32 %63, i32* %67, align 4
  br label %68

68:                                               ; preds = %49, %43
  br label %69

69:                                               ; preds = %68
  %70 = load i32, i32* %7, align 4
  %71 = add nsw i32 %70, 1
  store i32 %71, i32* %7, align 4
  br label %40

72:                                               ; preds = %40
  br label %73

73:                                               ; preds = %72
  %74 = load i32, i32* %3, align 4
  %75 = add nsw i32 %74, 1
  store i32 %75, i32* %3, align 4
  br label %14

76:                                               ; preds = %14
  br label %77

77:                                               ; preds = %76
  store i32 1000, i32* %5, align 4
  br label %78

78:                                               ; preds = %84, %77
  %79 = load i32, i32* %5, align 4
  %80 = sext i32 %79 to i64
  %81 = getelementptr inbounds [100001 x i32], [100001 x i32]* @a, i64 0, i64 %80
  %82 = load i32, i32* %81, align 4
  %83 = icmp eq i32 %82, 0
  br i1 %83, label %84, label %87

84:                                               ; preds = %78
  %85 = load i32, i32* %5, align 4
  %86 = add nsw i32 %85, -1
  store i32 %86, i32* %5, align 4
  br label %78

87:                                               ; preds = %78
  %88 = load i32, i32* %5, align 4
  store i32 %88, i32* %6, align 4
  br label %89

89:                                               ; preds = %98, %87
  %90 = load i32, i32* %6, align 4
  %91 = icmp sge i32 %90, 0
  br i1 %91, label %92, label %101

92:                                               ; preds = %89
  %93 = load i32, i32* %6, align 4
  %94 = sext i32 %93 to i64
  %95 = getelementptr inbounds [100001 x i32], [100001 x i32]* @a, i64 0, i64 %94
  %96 = load i32, i32* %95, align 4
  %97 = call dereferenceable(272) %"class.std::basic_ostream"* @_ZNSolsEi(%"class.std::basic_ostream"* @_ZSt4cout, i32 %96)
  br label %98

98:                                               ; preds = %92
  %99 = load i32, i32* %6, align 4
  %100 = add nsw i32 %99, -1
  store i32 %100, i32* %6, align 4
  br label %89

101:                                              ; preds = %89
  ret i32 0
}

declare dso_local dereferenceable(280) %"class.std::basic_istream"* @_ZNSirsERi(%"class.std::basic_istream"*, i32* dereferenceable(4)) #1

declare dso_local dereferenceable(272) %"class.std::basic_ostream"* @_ZNSolsEi(%"class.std::basic_ostream"*, i32) #1

; Function Attrs: noreturn nounwind
declare dso_local void @exit(i32) #5

; Function Attrs: noinline uwtable
define internal void @_GLOBAL__sub_I_450.cpp() #0 section ".text.startup" {
  call void @__cxx_global_var_init()
  ret void
}


!llvm.module.flags = !{!0}
!llvm.ident = !{!1}

!0 = !{i32 1, !"wchar_size", i32 4}
!1 = !{!"clang version 10.0.0-4ubuntu1 "}
